target datalayout = "e-m:e-p270:32:32-p271:32:32-p272:64:64-i64:64-i128:128-f80:128-n8:16:32:64-S128"
target triple = "x86_64-pc-linux-gnu"

@hf_control_error_code = internal global i32 0, align 4
@hf_control_cig_id = internal global i32 0, align 4
@hf_control_cis_id = internal global i32 0, align 4

; Function Attrs: null_pointer_is_valid sspstrong uwtable
define internal i32 @dissect_cis_terminate_ind(ptr noundef %0, ptr noundef %1, i32 noundef %2) #0 {
  %4 = alloca ptr, align 8
  %5 = alloca ptr, align 8
  %6 = alloca i32, align 4
  store ptr %0, ptr %4, align 8
  store ptr %1, ptr %5, align 8
  store i32 %2, ptr %6, align 4
  %7 = load ptr, ptr %5, align 8
  %8 = load i32, ptr @hf_control_cig_id, align 4
  %9 = load ptr, ptr %4, align 8
  %10 = load i32, ptr %6, align 4
  %11 = call ptr @proto_tree_add_item(ptr noundef %7, i32 noundef %8, ptr noundef %9, i32 noundef %10, i32 noundef 1, i32 noundef 0)
  %12 = load i32, ptr %6, align 4
  %13 = add i32 %12, 1
  store i32 %13, ptr %6, align 4
  %14 = load ptr, ptr %5, align 8
  %15 = load i32, ptr @hf_control_cis_id, align 4
  %16 = load ptr, ptr %4, align 8
  %17 = load i32, ptr %6, align 4
  %18 = call ptr @proto_tree_add_item(ptr noundef %14, i32 noundef %15, ptr noundef %16, i32 noundef %17, i32 noundef 1, i32 noundef 0)
  %19 = load i32, ptr %6, align 4
  %20 = add i32 %19, 1
  store i32 %20, ptr %6, align 4
  %21 = load ptr, ptr %5, align 8
  %22 = load i32, ptr @hf_control_error_code, align 4
  %23 = load ptr, ptr %4, align 8
  %24 = load i32, ptr %6, align 4
  %25 = call ptr @proto_tree_add_item(ptr noundef %21, i32 noundef %22, ptr noundef %23, i32 noundef %24, i32 noundef 1, i32 noundef 0)
  %26 = load i32, ptr %6, align 4
  %27 = add i32 %26, 1
  store i32 %27, ptr %6, align 4
  %28 = load i32, ptr %6, align 4
  ret i32 %28
}