; Function Attrs: null_pointer_is_valid sspstrong uwtable
define internal fastcc range(i32 6, 8) i32 @dissect_cis_terminate_ind(ptr noundef %0, ptr noundef %1, i32 noundef range(i32 3, 5) %2) unnamed_addr #0 {
  %4 = load i32, ptr @hf_control_cig_id, align 4
  %5 = tail call ptr @proto_tree_add_item(ptr noundef %1, i32 noundef %4, ptr noundef %0, i32 noundef %2, i32 noundef 1, i32 noundef 0)
  %6 = add nuw nsw i32 %2, 1
  %7 = load i32, ptr @hf_control_cis_id, align 4
  %8 = tail call ptr @proto_tree_add_item(ptr noundef %1, i32 noundef %7, ptr noundef %0, i32 noundef %6, i32 noundef 1, i32 noundef 0)
  %9 = add nuw nsw i32 %2, 2
  %10 = load i32, ptr @hf_control_error_code, align 4
  %11 = tail call ptr @proto_tree_add_item(ptr noundef %1, i32 noundef %10, ptr noundef %0, i32 noundef %9, i32 noundef 1, i32 noundef 0)
  %12 = add nuw nsw i32 %2, 3
  ret i32 %12
}